target datalayout = "e-m:e-p270:32:32-p271:32:32-p272:64:64-i64:64-i128:128-f80:128-n8:16:32:64-S128"
target triple = "x86_64-unknown-linux-gnu"

%struct.clientBufferLimitsConfig = type { i64, i64, i64 }
%struct.redisServer = type { i32, i64, ptr, ptr, ptr, i32, i32, i32, i32, i32, ptr, ptr, ptr, ptr, ptr, ptr, i32, i32, i64, i32, i32, i32, i32, ptr, i32, i32, [41 x i8], i32, i64, i32, i32, i32, ptr, ptr, i32, i32, i64, ptr, ptr, ptr, ptr, [2 x i32], i32, i32, i32, i32, i32, [16 x ptr], i32, ptr, ptr, i32, [8 x %struct.connListener], i32, %struct.connListener, ptr, ptr, ptr, ptr, ptr, ptr, ptr, ptr, ptr, ptr, i32, ptr, i32, ptr, [3 x %struct.pause_event], [256 x i8], ptr, i64, i32, i32, i32, i32, i64, i32, i32, i32, i32, i32, i64, i64, i64, i64, i64, i64, i64, i64, i64, double, i64, i64, i64, i64, i64, i64, i64, i64, i64, i64, i64, i64, i64, i64, i64, i64, i64, i64, i64, i64, double, i64, i64, i64, i64, i64, ptr, i64, i64, i64, %struct.malloc_stats, i64, i64, i64, i64, i64, i64, i64, i64, i64, i64, i64, i64, double, [4 x i64], i64, i64, i64, i64, i64, i64, i64, i64, i64, i64, [7 x %struct.anon], i64, i64, i64, i64, i64, i64, [4 x %struct.durationStats], i32, i32, i32, i32, i32, i32, i32, i32, i32, i32, i64, i32, i32, i32, i32, i64, i64, i32, i32, i32, i32, i32, ptr, [3 x %struct.clientBufferLimitsConfig], i32, i32, ptr, i32, i32, i32, i32, ptr, ptr, i32, i32, i64, i64, i64, i64, i64, i32, i32, ptr, i32, i32, i64, i64, i64, i64, i64, i32, i32, i64, i32, i32, i32, i32, i32, i32, i32, i32, ptr, i32, i64, i64, i64, i64, ptr, i32, ptr, i32, i32, i32, i64, i64, i64, i64, i32, i32, i32, i32, i32, i32, ptr, i32, i32, ptr, i32, i32, i32, [2 x i32], i32, %struct.redisOpArray, i32, ptr, i32, ptr, i32, i32, i32, i32, i32, i32, i32, [41 x i8], [41 x i8], i64, i64, i64, i64, i32, i32, ptr, i64, i64, i64, i32, i32, i32, i32, i32, i32, i32, i64, ptr, ptr, ptr, ptr, i32, i32, ptr, ptr, i32, i32, i64, i64, i64, ptr, i32, ptr, i64, i32, i32, i32, i64, i32, i32, i32, i32, ptr, i32, i32, [41 x i8], i64, i32, ptr, i32, i32, i64, i64, i32, i32, i32, i32, i32, i64, [3 x i32], i32, i32, i32, [9 x i32], ptr, ptr, i32, i64, ptr, ptr, i32, i32, i32, i32, i64, i64, i64, i64, i64, i64, i64, i64, i64, i64, i32, i32, i64, i64, i32, i64, i64, i64, i64, i64, ptr, ptr, i32, ptr, i32, i32, i32, i64, i64, ptr, ptr, i32, i32, i32, i32, i32, ptr, ptr, ptr, i32, i32, i32, i32, i32, i32, i32, i64, i32, i64, i32, i32, i32, i32, i32, i32, i32, i64, ptr, ptr, i64, ptr, i32, %struct.aclInfo, i32, i64, i32, i32, i32, %struct.redisTLSContextConfig, ptr, ptr, ptr, ptr, ptr, i64, i32, ptr, i32, i32, i32, i64, i32, ptr }
%struct.connListener = type { [16 x i32], i32, ptr, i32, i32, ptr, ptr }
%struct.pause_event = type { i32, i64 }
%struct.malloc_stats = type { i64, i64, i64, i64, i64 }
%struct.anon = type { i64, i64, [16 x i64], i32 }
%struct.durationStats = type { i64, i64, i64 }
%struct.redisOpArray = type { ptr, i32, i32 }
%struct.aclInfo = type { i64, i64, i64, i64 }
%struct.redisTLSContextConfig = type { ptr, ptr, ptr, ptr, ptr, ptr, ptr, ptr, ptr, ptr, ptr, ptr, i32, i32, i32, i32 }

@server = external global %struct.redisServer, align 8
@.str.50 = private unnamed_addr constant [9 x i8] c"config.c\00", align 1
@.str.391 = private unnamed_addr constant [4 x i8] c"tcp\00", align 1
@.str.392 = private unnamed_addr constant [17 x i8] c"listener != NULL\00", align 1
@.str.393 = private unnamed_addr constant [50 x i8] c"Unable to listen on this port. Check server logs.\00", align 1

; Function Attrs: nounwind uwtable
define internal i32 @updatePort(ptr noundef %err) #0 {
entry:
  %retval = alloca i32, align 4
  %err.addr = alloca ptr, align 8
  %listener = alloca ptr, align 8
  store ptr %err, ptr %err.addr, align 8
  %call = call ptr @listenerByType(ptr noundef @.str.391)
  store ptr %call, ptr %listener, align 8
  %0 = load ptr, ptr %listener, align 8
  %cmp = icmp ne ptr %0, null
  %lnot = xor i1 %cmp, true
  %lnot1 = xor i1 %lnot, true
  %lnot.ext = zext i1 %lnot1 to i32
  %conv = sext i32 %lnot.ext to i64
  %tobool = icmp ne i64 %conv, 0
  br i1 %tobool, label %cond.true, label %cond.false

cond.true:                                        ; preds = %entry
  br label %cond.end

cond.false:                                       ; preds = %entry
  call void @_serverAssert(ptr noundef @.str.392, ptr noundef @.str.50, i32 noundef 2461)
  call void @abort() #11
  unreachable

1:                                                ; No predecessors!
  br label %cond.end

cond.end:                                         ; preds = %1, %cond.true
  %2 = load ptr, ptr %listener, align 8
  %bindaddr = getelementptr inbounds %struct.connListener, ptr %2, i32 0, i32 2
  store ptr getelementptr inbounds (%struct.redisServer, ptr @server, i32 0, i32 47), ptr %bindaddr, align 8
  %3 = load i32, ptr getelementptr inbounds (%struct.redisServer, ptr @server, i32 0, i32 48), align 8
  %4 = load ptr, ptr %listener, align 8
  %bindaddr_count = getelementptr inbounds %struct.connListener, ptr %4, i32 0, i32 3
  store i32 %3, ptr %bindaddr_count, align 8
  %5 = load i32, ptr getelementptr inbounds (%struct.redisServer, ptr @server, i32 0, i32 44), align 8
  %6 = load ptr, ptr %listener, align 8
  %port = getelementptr inbounds %struct.connListener, ptr %6, i32 0, i32 4
  store i32 %5, ptr %port, align 4
  %call2 = call ptr @connectionByType(ptr noundef @.str.391)
  %7 = load ptr, ptr %listener, align 8
  %ct = getelementptr inbounds %struct.connListener, ptr %7, i32 0, i32 5
  store ptr %call2, ptr %ct, align 8
  %8 = load ptr, ptr %listener, align 8
  %call3 = call i32 @changeListener(ptr noundef %8)
  %cmp4 = icmp eq i32 %call3, -1
  br i1 %cmp4, label %if.then, label %if.end

if.then:                                          ; preds = %cond.end
  %9 = load ptr, ptr %err.addr, align 8
  store ptr @.str.393, ptr %9, align 8
  store i32 0, ptr %retval, align 4
  br label %return

if.end:                                           ; preds = %cond.end
  store i32 1, ptr %retval, align 4
  br label %return

return:                                           ; preds = %if.end, %if.then
  %10 = load i32, ptr %retval, align 4
  ret i32 %10
}