; Function Attrs: nounwind uwtable
define internal noundef i32 @updatePort(ptr nocapture noundef writeonly %err) #2 {
entry:
  %call = tail call ptr @listenerByType(ptr noundef nonnull @.str.391) #24
  %cmp.not = icmp eq ptr %call, null
  br i1 %cmp.not, label %cond.false, label %cond.end

cond.false:                                       ; preds = %entry
  tail call void @_serverAssert(ptr noundef nonnull @.str.392, ptr noundef nonnull @.str.50, i32 noundef 2461) #24
  tail call void @abort() #25
  unreachable

cond.end:                                         ; preds = %entry
  %bindaddr = getelementptr inbounds i8, ptr %call, i64 72
  store ptr getelementptr inbounds (%struct.redisServer, ptr @server, i64 0, i32 47), ptr %bindaddr, align 8
  %0 = load i32, ptr getelementptr inbounds (%struct.redisServer, ptr @server, i64 0, i32 48), align 8
  %bindaddr_count = getelementptr inbounds i8, ptr %call, i64 80
  store i32 %0, ptr %bindaddr_count, align 8
  %1 = load i32, ptr getelementptr inbounds (%struct.redisServer, ptr @server, i64 0, i32 44), align 8
  %port = getelementptr inbounds i8, ptr %call, i64 84
  store i32 %1, ptr %port, align 4
  %call2 = tail call ptr @connectionByType(ptr noundef nonnull @.str.391) #24
  %ct = getelementptr inbounds i8, ptr %call, i64 88
  store ptr %call2, ptr %ct, align 8
  %call3 = tail call i32 @changeListener(ptr noundef nonnull %call) #24
  %cmp4 = icmp eq i32 %call3, -1
  br i1 %cmp4, label %if.then, label %return

if.then:                                          ; preds = %cond.end
  store ptr @.str.393, ptr %err, align 8
  br label %return

return:                                           ; preds = %cond.end, %if.then
  %retval.0 = phi i32 [ 0, %if.then ], [ 1, %cond.end ]
  ret i32 %retval.0
}